; Function Attrs: mustprogress nofree norecurse nosync nounwind willreturn memory(read, argmem: readwrite, inaccessiblemem: none) uwtable
define i32 @Msat_IntVecPop(ptr noundef captures(none) %0) local_unnamed_addr #14 {
  %2 = load ptr, ptr %0, align 8, !tbaa !11
  %3 = getelementptr inbounds nuw i8, ptr %0, i64 8
  %4 = load i32, ptr %3, align 8, !tbaa !3
  %5 = add nsw i32 %4, -1
  store i32 %5, ptr %3, align 8, !tbaa !3
  %6 = sext i32 %5 to i64
  %7 = getelementptr inbounds i32, ptr %2, i64 %6
  %8 = load i32, ptr %7, align 4, !tbaa !12
  ret i32 %8
}